target datalayout = "e-m:e-p270:32:32-p271:32:32-p272:64:64-i64:64-i128:128-f80:128-n8:16:32:64-S128"
target triple = "x86_64-pc-linux-gnu"

%struct.JSValue = type { %union.JSValueUnion, i64 }
%union.JSValueUnion = type { double }
%struct.JSRefCountHeader = type { i32 }
%struct.JSThreadState = type { %struct.list_head, %struct.list_head, %struct.list_head, %struct.list_head, i32, i32, ptr, ptr }
%struct.list_head = type { ptr, ptr }
%struct.WorkerFuncArgs = type { ptr, ptr, ptr, ptr }

@js_worker_new_context_func = internal global ptr null, align 8
@stderr = external global ptr, align 8
@.str.110 = private unnamed_addr constant [22 x i8] c"JS_NewRuntime failure\00", align 1
@.str.111 = private unnamed_addr constant [22 x i8] c"JS_NewContext failure\00", align 1

; Function Attrs: nounwind uwtable
define internal void @JS_FreeValue(ptr noundef %0, i64 %1, i64 %2) #0 {
  %4 = alloca %struct.JSValue, align 8
  %5 = alloca ptr, align 8
  %6 = alloca ptr, align 8
  %7 = getelementptr inbounds { i64, i64 }, ptr %4, i32 0, i32 0
  store i64 %1, ptr %7, align 8
  %8 = getelementptr inbounds { i64, i64 }, ptr %4, i32 0, i32 1
  store i64 %2, ptr %8, align 8
  store ptr %0, ptr %5, align 8
  %9 = getelementptr inbounds %struct.JSValue, ptr %4, i32 0, i32 1
  %10 = load i64, ptr %9, align 8
  %11 = trunc i64 %10 to i32
  %12 = icmp uge i32 %11, -11
  br i1 %12, label %13, label %28

13:                                               ; preds = %3
  %14 = getelementptr inbounds %struct.JSValue, ptr %4, i32 0, i32 0
  %15 = load ptr, ptr %14, align 8
  store ptr %15, ptr %6, align 8
  %16 = load ptr, ptr %6, align 8
  %17 = getelementptr inbounds %struct.JSRefCountHeader, ptr %16, i32 0, i32 0
  %18 = load i32, ptr %17, align 4
  %19 = add i32 %18, -1
  store i32 %19, ptr %17, align 4
  %20 = icmp sle i32 %19, 0
  br i1 %20, label %21, label %27

21:                                               ; preds = %13
  %22 = load ptr, ptr %5, align 8
  %23 = getelementptr inbounds { i64, i64 }, ptr %4, i32 0, i32 0
  %24 = load i64, ptr %23, align 8
  %25 = getelementptr inbounds { i64, i64 }, ptr %4, i32 0, i32 1
  %26 = load i64, ptr %25, align 8
  call void @__JS_FreeValue(ptr noundef %22, i64 %24, i64 %26)
  br label %27

27:                                               ; preds = %21, %13
  br label %28

28:                                               ; preds = %27, %3
  ret void
}

; Function Attrs: nounwind uwtable
define dso_local void @js_std_dump_error(ptr noundef %0) #0 {
  %2 = alloca ptr, align 8
  %3 = alloca %struct.JSValue, align 8
  %4 = alloca %struct.JSValue, align 8
  store ptr %0, ptr %2, align 8
  %5 = load ptr, ptr %2, align 8
  %6 = call { i64, i64 } @JS_GetException(ptr noundef %5)
  %7 = getelementptr inbounds { i64, i64 }, ptr %4, i32 0, i32 0
  %8 = extractvalue { i64, i64 } %6, 0
  store i64 %8, ptr %7, align 8
  %9 = getelementptr inbounds { i64, i64 }, ptr %4, i32 0, i32 1
  %10 = extractvalue { i64, i64 } %6, 1
  store i64 %10, ptr %9, align 8
  call void @llvm.memcpy.p0.p0.i64(ptr align 8 %3, ptr align 8 %4, i64 16, i1 false)
  %11 = load ptr, ptr %2, align 8
  %12 = getelementptr inbounds { i64, i64 }, ptr %3, i32 0, i32 0
  %13 = load i64, ptr %12, align 8
  %14 = getelementptr inbounds { i64, i64 }, ptr %3, i32 0, i32 1
  %15 = load i64, ptr %14, align 8
  call void @js_std_dump_error1(ptr noundef %11, i64 %13, i64 %15)
  %16 = load ptr, ptr %2, align 8
  %17 = getelementptr inbounds { i64, i64 }, ptr %3, i32 0, i32 0
  %18 = load i64, ptr %17, align 8
  %19 = getelementptr inbounds { i64, i64 }, ptr %3, i32 0, i32 1
  %20 = load i64, ptr %19, align 8
  call void @JS_FreeValue(ptr noundef %16, i64 %18, i64 %20)
  ret void
}

; Function Attrs: nounwind uwtable
define internal i32 @JS_IsException(i64 %0, i64 %1) #0 {
  %3 = alloca %struct.JSValue, align 8
  %4 = getelementptr inbounds { i64, i64 }, ptr %3, i32 0, i32 0
  store i64 %0, ptr %4, align 8
  %5 = getelementptr inbounds { i64, i64 }, ptr %3, i32 0, i32 1
  store i64 %1, ptr %5, align 8
  %6 = getelementptr inbounds %struct.JSValue, ptr %3, i32 0, i32 1
  %7 = load i64, ptr %6, align 8
  %8 = trunc i64 %7 to i32
  %9 = icmp eq i32 %8, 6
  %10 = xor i1 %9, true
  %11 = xor i1 %10, true
  %12 = zext i1 %11 to i32
  %13 = sext i32 %12 to i64
  %14 = trunc i64 %13 to i32
  ret i32 %14
}

; Function Attrs: nounwind uwtable
define internal ptr @worker_func(ptr noundef %0) #0 {
  %2 = alloca ptr, align 8
  %3 = alloca ptr, align 8
  %4 = alloca ptr, align 8
  %5 = alloca ptr, align 8
  %6 = alloca ptr, align 8
  %7 = alloca %struct.JSValue, align 8
  %8 = alloca %struct.JSValue, align 8
  %9 = alloca %struct.JSValue, align 8
  store ptr %0, ptr %2, align 8
  %10 = load ptr, ptr %2, align 8
  store ptr %10, ptr %3, align 8
  %11 = call ptr @JS_NewRuntime()
  store ptr %11, ptr %4, align 8
  %12 = load ptr, ptr %4, align 8
  %13 = icmp eq ptr %12, null
  br i1 %13, label %14, label %17

14:                                               ; preds = %1
  %15 = load ptr, ptr @stderr, align 8
  %16 = call i32 (ptr, ptr, ...) @fprintf(ptr noundef %15, ptr noundef @.str.110) #12
  call void @exit(i32 noundef 1) #14
  unreachable

17:                                               ; preds = %1
  %18 = load ptr, ptr %4, align 8
  call void @js_std_init_handlers(ptr noundef %18)
  %19 = load ptr, ptr %4, align 8
  call void @JS_SetModuleLoaderFunc(ptr noundef %19, ptr noundef null, ptr noundef @js_module_loader, ptr noundef null)
  %20 = load ptr, ptr %4, align 8
  %21 = call ptr @JS_GetRuntimeOpaque(ptr noundef %20)
  store ptr %21, ptr %5, align 8
  %22 = load ptr, ptr %3, align 8
  %23 = getelementptr inbounds %struct.WorkerFuncArgs, ptr %22, i32 0, i32 2
  %24 = load ptr, ptr %23, align 8
  %25 = load ptr, ptr %5, align 8
  %26 = getelementptr inbounds %struct.JSThreadState, ptr %25, i32 0, i32 6
  store ptr %24, ptr %26, align 8
  %27 = load ptr, ptr %3, align 8
  %28 = getelementptr inbounds %struct.WorkerFuncArgs, ptr %27, i32 0, i32 3
  %29 = load ptr, ptr %28, align 8
  %30 = load ptr, ptr %5, align 8
  %31 = getelementptr inbounds %struct.JSThreadState, ptr %30, i32 0, i32 7
  store ptr %29, ptr %31, align 8
  %32 = load ptr, ptr @js_worker_new_context_func, align 8
  %33 = load ptr, ptr %4, align 8
  %34 = call ptr %32(ptr noundef %33)
  store ptr %34, ptr %6, align 8
  %35 = load ptr, ptr %6, align 8
  %36 = icmp eq ptr %35, null
  br i1 %36, label %37, label %40

37:                                               ; preds = %17
  %38 = load ptr, ptr @stderr, align 8
  %39 = call i32 (ptr, ptr, ...) @fprintf(ptr noundef %38, ptr noundef @.str.111) #12
  br label %40

40:                                               ; preds = %37, %17
  %41 = load ptr, ptr %4, align 8
  call void @JS_SetCanBlock(ptr noundef %41, i32 noundef 1)
  %42 = load ptr, ptr %6, align 8
  call void @js_std_add_helpers(ptr noundef %42, i32 noundef -1, ptr noundef null)
  %43 = load ptr, ptr %6, align 8
  %44 = load ptr, ptr %3, align 8
  %45 = getelementptr inbounds %struct.WorkerFuncArgs, ptr %44, i32 0, i32 1
  %46 = load ptr, ptr %45, align 8
  %47 = load ptr, ptr %3, align 8
  %48 = getelementptr inbounds %struct.WorkerFuncArgs, ptr %47, i32 0, i32 0
  %49 = load ptr, ptr %48, align 8
  %50 = call { i64, i64 } @JS_LoadModule(ptr noundef %43, ptr noundef %46, ptr noundef %49)
  %51 = getelementptr inbounds { i64, i64 }, ptr %8, i32 0, i32 0
  %52 = extractvalue { i64, i64 } %50, 0
  store i64 %52, ptr %51, align 8
  %53 = getelementptr inbounds { i64, i64 }, ptr %8, i32 0, i32 1
  %54 = extractvalue { i64, i64 } %50, 1
  store i64 %54, ptr %53, align 8
  call void @llvm.memcpy.p0.p0.i64(ptr align 8 %7, ptr align 8 %8, i64 16, i1 false)
  %55 = load ptr, ptr %3, align 8
  %56 = getelementptr inbounds %struct.WorkerFuncArgs, ptr %55, i32 0, i32 0
  %57 = load ptr, ptr %56, align 8
  call void @free(ptr noundef %57) #12
  %58 = load ptr, ptr %3, align 8
  %59 = getelementptr inbounds %struct.WorkerFuncArgs, ptr %58, i32 0, i32 1
  %60 = load ptr, ptr %59, align 8
  call void @free(ptr noundef %60) #12
  %61 = load ptr, ptr %3, align 8
  call void @free(ptr noundef %61) #12
  %62 = load ptr, ptr %6, align 8
  %63 = getelementptr inbounds { i64, i64 }, ptr %7, i32 0, i32 0
  %64 = load i64, ptr %63, align 8
  %65 = getelementptr inbounds { i64, i64 }, ptr %7, i32 0, i32 1
  %66 = load i64, ptr %65, align 8
  %67 = call { i64, i64 } @js_std_await(ptr noundef %62, i64 %64, i64 %66)
  %68 = getelementptr inbounds { i64, i64 }, ptr %9, i32 0, i32 0
  %69 = extractvalue { i64, i64 } %67, 0
  store i64 %69, ptr %68, align 8
  %70 = getelementptr inbounds { i64, i64 }, ptr %9, i32 0, i32 1
  %71 = extractvalue { i64, i64 } %67, 1
  store i64 %71, ptr %70, align 8
  call void @llvm.memcpy.p0.p0.i64(ptr align 8 %7, ptr align 8 %9, i64 16, i1 false)
  %72 = getelementptr inbounds { i64, i64 }, ptr %7, i32 0, i32 0
  %73 = load i64, ptr %72, align 8
  %74 = getelementptr inbounds { i64, i64 }, ptr %7, i32 0, i32 1
  %75 = load i64, ptr %74, align 8
  %76 = call i32 @JS_IsException(i64 %73, i64 %75)
  %77 = icmp ne i32 %76, 0
  br i1 %77, label %78, label %80

78:                                               ; preds = %40
  %79 = load ptr, ptr %6, align 8
  call void @js_std_dump_error(ptr noundef %79)
  br label %80

80:                                               ; preds = %78, %40
  %81 = load ptr, ptr %6, align 8
  %82 = getelementptr inbounds { i64, i64 }, ptr %7, i32 0, i32 0
  %83 = load i64, ptr %82, align 8
  %84 = getelementptr inbounds { i64, i64 }, ptr %7, i32 0, i32 1
  %85 = load i64, ptr %84, align 8
  call void @JS_FreeValue(ptr noundef %81, i64 %83, i64 %85)
  %86 = load ptr, ptr %6, align 8
  call void @js_std_loop(ptr noundef %86)
  %87 = load ptr, ptr %6, align 8
  call void @JS_FreeContext(ptr noundef %87)
  %88 = load ptr, ptr %4, align 8
  call void @js_std_free_handlers(ptr noundef %88)
  %89 = load ptr, ptr %4, align 8
  call void @JS_FreeRuntime(ptr noundef %89)
  ret ptr null
}