; Function Attrs: nounwind uwtable
define internal noundef ptr @worker_func(ptr nocapture noundef %0) #0 {
  %2 = tail call ptr @JS_NewRuntime() #29
  %3 = icmp eq ptr %2, null
  br i1 %3, label %4, label %7

4:                                                ; preds = %1
  %5 = load ptr, ptr @stderr, align 8
  %6 = tail call i64 @fwrite(ptr nonnull @.str.110, i64 21, i64 1, ptr %5) #32
  tail call void @exit(i32 noundef 1) #33
  unreachable

7:                                                ; preds = %1
  tail call void @js_std_init_handlers(ptr noundef nonnull %2)
  tail call void @JS_SetModuleLoaderFunc(ptr noundef nonnull %2, ptr noundef null, ptr noundef nonnull @js_module_loader, ptr noundef null) #29
  %8 = tail call ptr @JS_GetRuntimeOpaque(ptr noundef nonnull %2) #29
  %9 = getelementptr inbounds i8, ptr %0, i64 16
  %10 = load ptr, ptr %9, align 8
  %11 = getelementptr inbounds i8, ptr %8, i64 72
  store ptr %10, ptr %11, align 8
  %12 = getelementptr inbounds i8, ptr %0, i64 24
  %13 = load ptr, ptr %12, align 8
  %14 = getelementptr inbounds i8, ptr %8, i64 80
  store ptr %13, ptr %14, align 8
  %15 = load ptr, ptr @js_worker_new_context_func, align 8
  %16 = tail call ptr %15(ptr noundef nonnull %2) #29
  %17 = icmp eq ptr %16, null
  br i1 %17, label %.split34, label %.split

.split:                                           ; preds = %7
  tail call void @JS_SetCanBlock(ptr noundef nonnull %2, i32 noundef 1) #29
  tail call void @js_std_add_helpers(ptr noundef nonnull %16, i32 noundef -1, ptr noundef null)
  br label %20

.split34:                                         ; preds = %7
  %18 = load ptr, ptr @stderr, align 8
  %19 = tail call i64 @fwrite(ptr nonnull @.str.111, i64 21, i64 1, ptr %18) #32
  tail call void @JS_SetCanBlock(ptr noundef nonnull %2, i32 noundef 1) #29
  tail call void @js_std_add_helpers(ptr noundef null, i32 noundef -1, ptr noundef null)
  br label %20

20:                                               ; preds = %.split, %.split34
  %21 = getelementptr inbounds i8, ptr %0, i64 8
  %22 = load ptr, ptr %21, align 8
  %23 = load ptr, ptr %0, align 8
  %24 = tail call { i64, i64 } @JS_LoadModule(ptr noundef %16, ptr noundef %22, ptr noundef %23) #29
  %25 = extractvalue { i64, i64 } %24, 0
  %26 = extractvalue { i64, i64 } %24, 1
  %27 = load ptr, ptr %0, align 8
  tail call void @free(ptr noundef %27) #29
  %28 = load ptr, ptr %21, align 8
  tail call void @free(ptr noundef %28) #29
  tail call void @free(ptr noundef nonnull %0) #29
  %29 = tail call { i64, i64 } @js_std_await(ptr noundef %16, i64 %25, i64 %26)
  %30 = extractvalue { i64, i64 } %29, 0
  %31 = extractvalue { i64, i64 } %29, 1
  %32 = and i64 %31, 4294967295
  %.not = icmp eq i64 %32, 6
  br i1 %.not, label %33, label %js_std_dump_error.exit

33:                                               ; preds = %20
  %34 = tail call { i64, i64 } @JS_GetException(ptr noundef %16) #29
  %35 = extractvalue { i64, i64 } %34, 0
  %36 = extractvalue { i64, i64 } %34, 1
  tail call fastcc void @js_std_dump_error1(ptr noundef %16, i64 %35, i64 %36)
  %37 = trunc i64 %36 to i32
  %38 = icmp ugt i32 %37, -12
  br i1 %38, label %39, label %js_std_dump_error.exit

39:                                               ; preds = %33
  %40 = inttoptr i64 %35 to ptr
  %41 = load i32, ptr %40, align 4
  %42 = add i32 %41, -1
  store i32 %42, ptr %40, align 4
  %43 = icmp slt i32 %42, 1
  br i1 %43, label %44, label %js_std_dump_error.exit

44:                                               ; preds = %39
  tail call void @__JS_FreeValue(ptr noundef %16, i64 %35, i64 %36) #29
  br label %js_std_dump_error.exit

js_std_dump_error.exit:                           ; preds = %44, %39, %33, %20
  %45 = trunc i64 %31 to i32
  %46 = icmp ugt i32 %45, -12
  br i1 %46, label %47, label %JS_FreeValue.exit

47:                                               ; preds = %js_std_dump_error.exit
  %48 = inttoptr i64 %30 to ptr
  %49 = load i32, ptr %48, align 4
  %50 = add i32 %49, -1
  store i32 %50, ptr %48, align 4
  %51 = icmp slt i32 %50, 1
  br i1 %51, label %52, label %JS_FreeValue.exit

52:                                               ; preds = %47
  tail call void @__JS_FreeValue(ptr noundef %16, i64 %30, i64 %31) #29
  br label %JS_FreeValue.exit

JS_FreeValue.exit:                                ; preds = %js_std_dump_error.exit, %47, %52
  tail call void @js_std_loop(ptr noundef %16)
  tail call void @JS_FreeContext(ptr noundef %16) #29
  tail call void @js_std_free_handlers(ptr noundef nonnull %2)
  tail call void @JS_FreeRuntime(ptr noundef nonnull %2) #29
  ret ptr null
}